; Function Attrs: nounwind uwtable
define range(i32 -1, 1) i32 @Bmcs_ManPerform(ptr noundef %0, ptr noundef %1) local_unnamed_addr #0 {
  %3 = getelementptr inbounds nuw i8, ptr %1, i64 24
  %4 = load i32, ptr %3, align 8
  %5 = icmp eq i32 %4, 1
  br i1 %5, label %6, label %8

6:                                                ; preds = %2
  %7 = tail call i32 @Bmcs_ManPerformOne(ptr noundef %0, ptr noundef nonnull %1)
  br label %10

8:                                                ; preds = %2
  %9 = tail call i32 @Bmcs_ManPerformMulti(ptr noundef %0, ptr noundef nonnull %1)
  br label %10

10:                                               ; preds = %8, %6
  %.0 = phi i32 [ %7, %6 ], [ %9, %8 ]
  ret i32 %.0
}